target datalayout = "e-m:e-p270:32:32-p271:32:32-p272:64:64-i64:64-i128:128-f80:128-n8:16:32:64-S128"
target triple = "x86_64-pc-linux-gnu"

@.str.176 = private unnamed_addr constant [10 x i8] c"TIMESTAMP\00", align 1
@.str.196 = private unnamed_addr constant [12 x i8] c"TIMESTAMPNS\00", align 1
@.str.197 = private unnamed_addr constant [12 x i8] c"WIFI_STATUS\00", align 1
@.str.208 = private unnamed_addr constant [13 x i8] c"TIMESTAMPING\00", align 1
@.str.414 = private unnamed_addr constant [7 x i8] c"RIGHTS\00", align 1
@.str.415 = private unnamed_addr constant [11 x i8] c"SCM_RIGHTS\00", align 1
@.str.416 = private unnamed_addr constant [12 x i8] c"CREDENTIALS\00", align 1
@.str.417 = private unnamed_addr constant [14 x i8] c"SCM_TIMESTAMP\00", align 1
@.str.418 = private unnamed_addr constant [16 x i8] c"SCM_TIMESTAMPNS\00", align 1
@.str.419 = private unnamed_addr constant [16 x i8] c"SCM_CREDENTIALS\00", align 1
@.str.420 = private unnamed_addr constant [16 x i8] c"SCM_WIFI_STATUS\00", align 1
@.str.421 = private unnamed_addr constant [17 x i8] c"SCM_TIMESTAMPING\00", align 1

; Function Attrs: nounwind sspstrong uwtable
define i32 @rsock_scm_optname_to_int(ptr noundef %0, i64 noundef %1, ptr noundef %2) #0 {
  %4 = alloca i32, align 4
  %5 = alloca ptr, align 8
  %6 = alloca i64, align 8
  %7 = alloca ptr, align 8
  store ptr %0, ptr %5, align 8, !tbaa !6
  store i64 %1, ptr %6, align 8, !tbaa !11
  store ptr %2, ptr %7, align 8, !tbaa !13
  %8 = load i64, ptr %6, align 8, !tbaa !11
  switch i64 %8, label %91 [
    i64 5, label %9
    i64 6, label %10
    i64 7, label %17
    i64 9, label %18
    i64 10, label %25
    i64 11, label %32
    i64 12, label %51
    i64 13, label %58
    i64 15, label %65
    i64 16, label %84
  ]

9:                                                ; preds = %3
  store i32 -1, ptr %4, align 4
  br label %99

10:                                               ; preds = %3
  %11 = load ptr, ptr %5, align 8, !tbaa !6
  %12 = call i32 @memcmp(ptr noundef %11, ptr noundef @.str.414, i64 noundef 6) #10
  %13 = icmp eq i32 %12, 0
  br i1 %13, label %14, label %16

14:                                               ; preds = %10
  %15 = load ptr, ptr %7, align 8, !tbaa !13
  store i32 1, ptr %15, align 4, !tbaa !15
  store i32 0, ptr %4, align 4
  br label %99

16:                                               ; preds = %10
  store i32 -1, ptr %4, align 4
  br label %99

17:                                               ; preds = %3
  store i32 -1, ptr %4, align 4
  br label %99

18:                                               ; preds = %3
  %19 = load ptr, ptr %5, align 8, !tbaa !6
  %20 = call i32 @memcmp(ptr noundef %19, ptr noundef @.str.176, i64 noundef 9) #10
  %21 = icmp eq i32 %20, 0
  br i1 %21, label %22, label %24

22:                                               ; preds = %18
  %23 = load ptr, ptr %7, align 8, !tbaa !13
  store i32 29, ptr %23, align 4, !tbaa !15
  store i32 0, ptr %4, align 4
  br label %99

24:                                               ; preds = %18
  store i32 -1, ptr %4, align 4
  br label %99

25:                                               ; preds = %3
  %26 = load ptr, ptr %5, align 8, !tbaa !6
  %27 = call i32 @memcmp(ptr noundef %26, ptr noundef @.str.415, i64 noundef 10) #10
  %28 = icmp eq i32 %27, 0
  br i1 %28, label %29, label %31

29:                                               ; preds = %25
  %30 = load ptr, ptr %7, align 8, !tbaa !13
  store i32 1, ptr %30, align 4, !tbaa !15
  store i32 0, ptr %4, align 4
  br label %99

31:                                               ; preds = %25
  store i32 -1, ptr %4, align 4
  br label %99

32:                                               ; preds = %3
  %33 = load ptr, ptr %5, align 8, !tbaa !6
  %34 = call i32 @memcmp(ptr noundef %33, ptr noundef @.str.196, i64 noundef 11) #10
  %35 = icmp eq i32 %34, 0
  br i1 %35, label %36, label %38

36:                                               ; preds = %32
  %37 = load ptr, ptr %7, align 8, !tbaa !13
  store i32 35, ptr %37, align 4, !tbaa !15
  store i32 0, ptr %4, align 4
  br label %99

38:                                               ; preds = %32
  %39 = load ptr, ptr %5, align 8, !tbaa !6
  %40 = call i32 @memcmp(ptr noundef %39, ptr noundef @.str.416, i64 noundef 11) #10
  %41 = icmp eq i32 %40, 0
  br i1 %41, label %42, label %44

42:                                               ; preds = %38
  %43 = load ptr, ptr %7, align 8, !tbaa !13
  store i32 2, ptr %43, align 4, !tbaa !15
  store i32 0, ptr %4, align 4
  br label %99

44:                                               ; preds = %38
  %45 = load ptr, ptr %5, align 8, !tbaa !6
  %46 = call i32 @memcmp(ptr noundef %45, ptr noundef @.str.197, i64 noundef 11) #10
  %47 = icmp eq i32 %46, 0
  br i1 %47, label %48, label %50

48:                                               ; preds = %44
  %49 = load ptr, ptr %7, align 8, !tbaa !13
  store i32 41, ptr %49, align 4, !tbaa !15
  store i32 0, ptr %4, align 4
  br label %99

50:                                               ; preds = %44
  store i32 -1, ptr %4, align 4
  br label %99

51:                                               ; preds = %3
  %52 = load ptr, ptr %5, align 8, !tbaa !6
  %53 = call i32 @memcmp(ptr noundef %52, ptr noundef @.str.208, i64 noundef 12) #10
  %54 = icmp eq i32 %53, 0
  br i1 %54, label %55, label %57

55:                                               ; preds = %51
  %56 = load ptr, ptr %7, align 8, !tbaa !13
  store i32 37, ptr %56, align 4, !tbaa !15
  store i32 0, ptr %4, align 4
  br label %99

57:                                               ; preds = %51
  store i32 -1, ptr %4, align 4
  br label %99

58:                                               ; preds = %3
  %59 = load ptr, ptr %5, align 8, !tbaa !6
  %60 = call i32 @memcmp(ptr noundef %59, ptr noundef @.str.417, i64 noundef 13) #10
  %61 = icmp eq i32 %60, 0
  br i1 %61, label %62, label %64

62:                                               ; preds = %58
  %63 = load ptr, ptr %7, align 8, !tbaa !13
  store i32 29, ptr %63, align 4, !tbaa !15
  store i32 0, ptr %4, align 4
  br label %99

64:                                               ; preds = %58
  store i32 -1, ptr %4, align 4
  br label %99

65:                                               ; preds = %3
  %66 = load ptr, ptr %5, align 8, !tbaa !6
  %67 = call i32 @memcmp(ptr noundef %66, ptr noundef @.str.418, i64 noundef 15) #10
  %68 = icmp eq i32 %67, 0
  br i1 %68, label %69, label %71

69:                                               ; preds = %65
  %70 = load ptr, ptr %7, align 8, !tbaa !13
  store i32 35, ptr %70, align 4, !tbaa !15
  store i32 0, ptr %4, align 4
  br label %99

71:                                               ; preds = %65
  %72 = load ptr, ptr %5, align 8, !tbaa !6
  %73 = call i32 @memcmp(ptr noundef %72, ptr noundef @.str.419, i64 noundef 15) #10
  %74 = icmp eq i32 %73, 0
  br i1 %74, label %75, label %77

75:                                               ; preds = %71
  %76 = load ptr, ptr %7, align 8, !tbaa !13
  store i32 2, ptr %76, align 4, !tbaa !15
  store i32 0, ptr %4, align 4
  br label %99

77:                                               ; preds = %71
  %78 = load ptr, ptr %5, align 8, !tbaa !6
  %79 = call i32 @memcmp(ptr noundef %78, ptr noundef @.str.420, i64 noundef 15) #10
  %80 = icmp eq i32 %79, 0
  br i1 %80, label %81, label %83

81:                                               ; preds = %77
  %82 = load ptr, ptr %7, align 8, !tbaa !13
  store i32 41, ptr %82, align 4, !tbaa !15
  store i32 0, ptr %4, align 4
  br label %99

83:                                               ; preds = %77
  store i32 -1, ptr %4, align 4
  br label %99

84:                                               ; preds = %3
  %85 = load ptr, ptr %5, align 8, !tbaa !6
  %86 = call i32 @memcmp(ptr noundef %85, ptr noundef @.str.421, i64 noundef 16) #10
  %87 = icmp eq i32 %86, 0
  br i1 %87, label %88, label %90

88:                                               ; preds = %84
  %89 = load ptr, ptr %7, align 8, !tbaa !13
  store i32 37, ptr %89, align 4, !tbaa !15
  store i32 0, ptr %4, align 4
  br label %99

90:                                               ; preds = %84
  store i32 -1, ptr %4, align 4
  br label %99

91:                                               ; preds = %3
  %92 = load ptr, ptr %5, align 8, !tbaa !6
  %93 = icmp ne ptr %92, null
  br i1 %93, label %94, label %97

94:                                               ; preds = %91
  %95 = load ptr, ptr %7, align 8, !tbaa !13
  %96 = icmp ne ptr %95, null
  br i1 %96, label %98, label %97

97:                                               ; preds = %94, %91
  br label %98

98:                                               ; preds = %97, %94
  store i32 -1, ptr %4, align 4
  br label %99

99:                                               ; preds = %98, %90, %88, %83, %81, %75, %69, %64, %62, %57, %55, %50, %48, %42, %36, %31, %29, %24, %22, %17, %16, %14, %9
  %100 = load i32, ptr %4, align 4
  ret i32 %100
}