; Function Attrs: mustprogress nofree nounwind sspstrong willreturn memory(argmem: readwrite) uwtable
define range(i32 -1, 1) i32 @rsock_scm_optname_to_int(ptr noundef readonly captures(none) %0, i64 noundef %1, ptr noundef writeonly captures(none) %2) #1 {
  switch i64 %1, label %28 [
    i64 16, label %26
    i64 6, label %4
    i64 15, label %20
    i64 9, label %6
    i64 10, label %8
    i64 11, label %10
    i64 12, label %16
    i64 13, label %18
  ]

4:                                                ; preds = %3
  %bcmp38 = tail call i32 @bcmp(ptr noundef nonnull dereferenceable(6) %0, ptr noundef nonnull dereferenceable(6) @.str.414, i64 6)
  %5 = icmp eq i32 %bcmp38, 0
  br i1 %5, label %.sink.split, label %28

6:                                                ; preds = %3
  %bcmp37 = tail call i32 @bcmp(ptr noundef nonnull dereferenceable(9) %0, ptr noundef nonnull dereferenceable(9) @.str.176, i64 9)
  %7 = icmp eq i32 %bcmp37, 0
  br i1 %7, label %.sink.split, label %28

8:                                                ; preds = %3
  %bcmp36 = tail call i32 @bcmp(ptr noundef nonnull dereferenceable(10) %0, ptr noundef nonnull dereferenceable(10) @.str.415, i64 10)
  %9 = icmp eq i32 %bcmp36, 0
  br i1 %9, label %.sink.split, label %28

10:                                               ; preds = %3
  %bcmp33 = tail call i32 @bcmp(ptr noundef nonnull dereferenceable(11) %0, ptr noundef nonnull dereferenceable(11) @.str.196, i64 11)
  %11 = icmp eq i32 %bcmp33, 0
  br i1 %11, label %.sink.split, label %12

12:                                               ; preds = %10
  %bcmp34 = tail call i32 @bcmp(ptr noundef nonnull dereferenceable(11) %0, ptr noundef nonnull dereferenceable(11) @.str.416, i64 11)
  %13 = icmp eq i32 %bcmp34, 0
  br i1 %13, label %.sink.split, label %14

14:                                               ; preds = %12
  %bcmp35 = tail call i32 @bcmp(ptr noundef nonnull dereferenceable(11) %0, ptr noundef nonnull dereferenceable(11) @.str.197, i64 11)
  %15 = icmp eq i32 %bcmp35, 0
  br i1 %15, label %.sink.split, label %28

16:                                               ; preds = %3
  %bcmp32 = tail call i32 @bcmp(ptr noundef nonnull dereferenceable(12) %0, ptr noundef nonnull dereferenceable(12) @.str.208, i64 12)
  %17 = icmp eq i32 %bcmp32, 0
  br i1 %17, label %.sink.split, label %28

18:                                               ; preds = %3
  %bcmp31 = tail call i32 @bcmp(ptr noundef nonnull dereferenceable(13) %0, ptr noundef nonnull dereferenceable(13) @.str.417, i64 13)
  %19 = icmp eq i32 %bcmp31, 0
  br i1 %19, label %.sink.split, label %28

20:                                               ; preds = %3
  %bcmp28 = tail call i32 @bcmp(ptr noundef nonnull dereferenceable(15) %0, ptr noundef nonnull dereferenceable(15) @.str.418, i64 15)
  %21 = icmp eq i32 %bcmp28, 0
  br i1 %21, label %.sink.split, label %22

22:                                               ; preds = %20
  %bcmp29 = tail call i32 @bcmp(ptr noundef nonnull dereferenceable(15) %0, ptr noundef nonnull dereferenceable(15) @.str.419, i64 15)
  %23 = icmp eq i32 %bcmp29, 0
  br i1 %23, label %.sink.split, label %24

24:                                               ; preds = %22
  %bcmp30 = tail call i32 @bcmp(ptr noundef nonnull dereferenceable(15) %0, ptr noundef nonnull dereferenceable(15) @.str.420, i64 15)
  %25 = icmp eq i32 %bcmp30, 0
  br i1 %25, label %.sink.split, label %28

26:                                               ; preds = %3
  %bcmp = tail call i32 @bcmp(ptr noundef nonnull dereferenceable(16) %0, ptr noundef nonnull dereferenceable(16) @.str.421, i64 16)
  %27 = icmp eq i32 %bcmp, 0
  br i1 %27, label %.sink.split, label %28

.sink.split:                                      ; preds = %26, %24, %22, %20, %18, %16, %14, %12, %10, %8, %6, %4
  %.sink = phi i32 [ 1, %4 ], [ 29, %6 ], [ 1, %8 ], [ 35, %10 ], [ 2, %12 ], [ 41, %14 ], [ 37, %16 ], [ 29, %18 ], [ 35, %20 ], [ 2, %22 ], [ 41, %24 ], [ 37, %26 ]
  store i32 %.sink, ptr %2, align 4, !tbaa !6
  br label %28

28:                                               ; preds = %.sink.split, %3, %26, %24, %18, %16, %14, %8, %6, %4
  %.0 = phi i32 [ -1, %4 ], [ -1, %6 ], [ -1, %8 ], [ -1, %14 ], [ -1, %16 ], [ -1, %18 ], [ -1, %24 ], [ -1, %26 ], [ -1, %3 ], [ 0, %.sink.split ]
  ret i32 %.0
}